target datalayout = "e-m:e-p270:32:32-p271:32:32-p272:64:64-i64:64-i128:128-f80:128-n8:16:32:64-S128"
target triple = "x86_64-pc-linux-gnu"

%struct._packet_info = type { ptr, ptr, i32, i32, %struct.nstime_t, %struct.nstime_t, %struct.nstime_t, i8, ptr, ptr, ptr, ptr, %struct._address, %struct._address, %struct._address, %struct._address, %struct._address, %struct._address, i32, ptr, i8, [3 x i8], %struct.anon, i32, i32, i32, i32, ptr, i8, ptr, ptr, i16, i16, i32, i32, i16, i32, i32, ptr, ptr, ptr, i8, i8, i16, i16, i16, i32, i16, i16, ptr, ptr, ptr, ptr, ptr, i32, i32 }
%struct.nstime_t = type { i64, i32 }
%struct._address = type { i32, i32, ptr, ptr }
%struct.anon = type { i8, [3 x i8] }

@.str.628 = private unnamed_addr constant [6 x i8] c"H.265\00", align 1

; Function Attrs: null_pointer_is_valid sspstrong uwtable
define internal i32 @dissect_h265_bytestream(ptr noundef %0, ptr noundef %1, ptr noundef %2, ptr noundef %3) #0 {
  %5 = alloca i32, align 4
  %6 = alloca ptr, align 8
  %7 = alloca ptr, align 8
  %8 = alloca ptr, align 8
  %9 = alloca ptr, align 8
  %10 = alloca ptr, align 8
  %11 = alloca i32, align 4
  %12 = alloca i32, align 4
  %13 = alloca i32, align 4
  %14 = alloca i32, align 4
  %15 = alloca i32, align 4
  store ptr %0, ptr %6, align 8
  store ptr %1, ptr %7, align 8
  store ptr %2, ptr %8, align 8
  store ptr %3, ptr %9, align 8
  call void @llvm.lifetime.start.p0(i64 8, ptr %10) #9
  call void @llvm.lifetime.start.p0(i64 4, ptr %11) #9
  store i32 0, ptr %11, align 4
  call void @llvm.lifetime.start.p0(i64 4, ptr %12) #9
  call void @llvm.lifetime.start.p0(i64 4, ptr %13) #9
  br label %16

16:                                               ; preds = %38, %4
  br label %17

17:                                               ; preds = %16
  %18 = load ptr, ptr %6, align 8
  %19 = call i32 @tvb_reported_length(ptr noundef %18)
  %20 = icmp ult i32 %19, 4
  br i1 %20, label %21, label %22

21:                                               ; preds = %17
  store i32 0, ptr %5, align 4
  store i32 1, ptr %14, align 4
  br label %106

22:                                               ; preds = %17
  %23 = load ptr, ptr %6, align 8
  %24 = load i32, ptr %11, align 4
  %25 = call i32 @tvb_get_uint32(ptr noundef %23, i32 noundef %24, i32 noundef 0)
  store i32 %25, ptr %13, align 4
  %26 = load i32, ptr %13, align 4
  %27 = lshr i32 %26, 8
  %28 = icmp eq i32 %27, 1
  br i1 %28, label %32, label %29

29:                                               ; preds = %22
  %30 = load i32, ptr %13, align 4
  %31 = icmp eq i32 %30, 1
  br i1 %31, label %32, label %33

32:                                               ; preds = %29, %22
  br label %41

33:                                               ; preds = %29
  %34 = load i32, ptr %13, align 4
  %35 = icmp ne i32 %34, 0
  br i1 %35, label %36, label %37

36:                                               ; preds = %33
  store i32 0, ptr %5, align 4
  store i32 1, ptr %14, align 4
  br label %106

37:                                               ; preds = %33
  br label %38

38:                                               ; preds = %37
  %39 = load i32, ptr %11, align 4
  %40 = add i32 %39, 2
  store i32 %40, ptr %11, align 4
  br label %16

41:                                               ; preds = %32
  %42 = load ptr, ptr %7, align 8
  %43 = getelementptr inbounds nuw %struct._packet_info, ptr %42, i32 0, i32 1
  %44 = load ptr, ptr %43, align 8
  call void @col_set_str(ptr noundef %44, i32 noundef 35, ptr noundef @.str.628)
  %45 = load ptr, ptr %7, align 8
  %46 = getelementptr inbounds nuw %struct._packet_info, ptr %45, i32 0, i32 1
  %47 = load ptr, ptr %46, align 8
  call void @col_clear(ptr noundef %47, i32 noundef 25)
  br label %48

48:                                               ; preds = %90, %41
  %49 = load ptr, ptr %6, align 8
  %50 = load i32, ptr %11, align 4
  %51 = call i32 @tvb_reported_length_remaining(ptr noundef %49, i32 noundef %50)
  %52 = icmp ne i32 %51, 0
  br i1 %52, label %53, label %103

53:                                               ; preds = %48
  %54 = load ptr, ptr %6, align 8
  %55 = load i32, ptr %11, align 4
  %56 = call i32 @tvb_get_uint32(ptr noundef %54, i32 noundef %55, i32 noundef 0)
  store i32 %56, ptr %13, align 4
  %57 = load i32, ptr %13, align 4
  %58 = lshr i32 %57, 8
  %59 = icmp ne i32 %58, 1
  br i1 %59, label %60, label %63

60:                                               ; preds = %53
  %61 = load i32, ptr %11, align 4
  %62 = add i32 %61, 1
  store i32 %62, ptr %11, align 4
  br label %63

63:                                               ; preds = %60, %53
  %64 = load i32, ptr %11, align 4
  %65 = add i32 %64, 3
  store i32 %65, ptr %11, align 4
  call void @llvm.lifetime.start.p0(i64 4, ptr %15) #9
  %66 = load ptr, ptr %6, align 8
  %67 = load i32, ptr %11, align 4
  %68 = call i32 @tvb_reported_length_remaining(ptr noundef %66, i32 noundef %67)
  store i32 %68, ptr %15, align 4
  %69 = load ptr, ptr %6, align 8
  %70 = load i32, ptr %11, align 4
  %71 = call i32 @tvb_find_uint16(ptr noundef %69, i32 noundef %70, i32 noundef -1, i16 noundef zeroext 0)
  store i32 %71, ptr %12, align 4
  br label %72

72:                                               ; preds = %85, %63
  %73 = load i32, ptr %12, align 4
  %74 = icmp ne i32 %73, -1
  br i1 %74, label %75, label %90

75:                                               ; preds = %72
  %76 = load ptr, ptr %6, align 8
  %77 = load i32, ptr %12, align 4
  %78 = add i32 %77, 1
  %79 = call i32 @tvb_find_uint16(ptr noundef %76, i32 noundef %78, i32 noundef 3, i16 noundef zeroext 1)
  %80 = icmp ne i32 %79, -1
  br i1 %80, label %81, label %85

81:                                               ; preds = %75
  %82 = load i32, ptr %12, align 4
  %83 = load i32, ptr %11, align 4
  %84 = sub i32 %82, %83
  store i32 %84, ptr %15, align 4
  br label %90

85:                                               ; preds = %75
  %86 = load ptr, ptr %6, align 8
  %87 = load i32, ptr %12, align 4
  %88 = add i32 %87, 1
  %89 = call i32 @tvb_find_uint16(ptr noundef %86, i32 noundef %88, i32 noundef -1, i16 noundef zeroext 0)
  store i32 %89, ptr %12, align 4
  br label %72, !llvm.loop !22

90:                                               ; preds = %81, %72
  %91 = load ptr, ptr %6, align 8
  %92 = load i32, ptr %11, align 4
  %93 = load i32, ptr %15, align 4
  %94 = call ptr @tvb_new_subset_length(ptr noundef %91, i32 noundef %92, i32 noundef %93)
  store ptr %94, ptr %10, align 8
  %95 = load ptr, ptr %10, align 8
  %96 = load ptr, ptr %7, align 8
  %97 = load ptr, ptr %8, align 8
  %98 = load ptr, ptr %9, align 8
  %99 = call i32 @dissect_h265(ptr noundef %95, ptr noundef %96, ptr noundef %97, ptr noundef %98)
  %100 = load i32, ptr %15, align 4
  %101 = load i32, ptr %11, align 4
  %102 = add i32 %101, %100
  store i32 %102, ptr %11, align 4
  call void @llvm.lifetime.end.p0(i64 4, ptr %15) #9
  br label %48, !llvm.loop !23

103:                                              ; preds = %48
  %104 = load ptr, ptr %6, align 8
  %105 = call i32 @tvb_reported_length(ptr noundef %104)
  store i32 %105, ptr %5, align 4
  store i32 1, ptr %14, align 4
  br label %106

106:                                              ; preds = %103, %36, %21
  call void @llvm.lifetime.end.p0(i64 4, ptr %13) #9
  call void @llvm.lifetime.end.p0(i64 4, ptr %12) #9
  call void @llvm.lifetime.end.p0(i64 4, ptr %11) #9
  call void @llvm.lifetime.end.p0(i64 8, ptr %10) #9
  %107 = load i32, ptr %5, align 4
  ret i32 %107
}