; Function Attrs: null_pointer_is_valid sspstrong uwtable
define internal i32 @dissect_h265_bytestream(ptr noundef %0, ptr noundef %1, ptr noundef %2, ptr readnone captures(none) %3) #0 {
  %5 = tail call i32 @tvb_reported_length(ptr noundef %0)
  %6 = icmp ult i32 %5, 4
  br i1 %6, label %.loopexit47, label %.lr.ph

.lr.ph:                                           ; preds = %4, %11
  %.03950 = phi i32 [ %12, %11 ], [ 0, %4 ]
  %7 = tail call i32 @tvb_get_uint32(ptr noundef %0, i32 noundef %.03950, i32 noundef 0)
  %.mask = and i32 %7, -256
  %8 = icmp eq i32 %.mask, 256
  %9 = icmp eq i32 %7, 1
  %or.cond = or i1 %9, %8
  br i1 %or.cond, label %15, label %10

10:                                               ; preds = %.lr.ph
  %.not = icmp eq i32 %7, 0
  br i1 %.not, label %11, label %.loopexit47

11:                                               ; preds = %10
  %12 = add i32 %.03950, 2
  %13 = tail call i32 @tvb_reported_length(ptr noundef %0)
  %14 = icmp ult i32 %13, 4
  br i1 %14, label %.loopexit47, label %.lr.ph

15:                                               ; preds = %.lr.ph
  %16 = getelementptr inbounds nuw i8, ptr %1, i64 8
  %17 = load ptr, ptr %16, align 8
  tail call void @col_set_str(ptr noundef %17, i32 noundef 35, ptr noundef nonnull @.str.628)
  %18 = load ptr, ptr %16, align 8
  tail call void @col_clear(ptr noundef %18, i32 noundef 25)
  %19 = tail call i32 @tvb_reported_length_remaining(ptr noundef %0, i32 noundef %.03950)
  %.not4255 = icmp eq i32 %19, 0
  br i1 %.not4255, label %._crit_edge, label %.lr.ph57

.lr.ph57:                                         ; preds = %15, %.loopexit
  %.156 = phi i32 [ %33, %.loopexit ], [ %.03950, %15 ]
  %20 = tail call i32 @tvb_get_uint32(ptr noundef %0, i32 noundef %.156, i32 noundef 0)
  %.mask44 = and i32 %20, -256
  %.not43 = icmp ne i32 %.mask44, 256
  %21 = zext i1 %.not43 to i32
  %spec.select = add i32 %.156, 3
  %22 = add i32 %spec.select, %21
  %23 = tail call i32 @tvb_reported_length_remaining(ptr noundef %0, i32 noundef %22)
  %24 = tail call i32 @tvb_find_uint16(ptr noundef %0, i32 noundef %22, i32 noundef -1, i16 noundef zeroext 0)
  %.not4552 = icmp eq i32 %24, -1
  br i1 %.not4552, label %.loopexit, label %.lr.ph54

.lr.ph54:                                         ; preds = %.lr.ph57, %29
  %.03853 = phi i32 [ %30, %29 ], [ %24, %.lr.ph57 ]
  %25 = add nuw i32 %.03853, 1
  %26 = tail call i32 @tvb_find_uint16(ptr noundef %0, i32 noundef %25, i32 noundef 3, i16 noundef zeroext 1)
  %.not46 = icmp eq i32 %26, -1
  br i1 %.not46, label %29, label %27

27:                                               ; preds = %.lr.ph54
  %28 = sub i32 %.03853, %22
  br label %.loopexit

29:                                               ; preds = %.lr.ph54
  %30 = tail call i32 @tvb_find_uint16(ptr noundef %0, i32 noundef %25, i32 noundef -1, i16 noundef zeroext 0)
  %.not45 = icmp eq i32 %30, -1
  br i1 %.not45, label %.loopexit, label %.lr.ph54, !llvm.loop !32

.loopexit:                                        ; preds = %29, %.lr.ph57, %27
  %.0 = phi i32 [ %28, %27 ], [ %23, %.lr.ph57 ], [ %23, %29 ]
  %31 = tail call ptr @tvb_new_subset_length(ptr noundef %0, i32 noundef %22, i32 noundef %.0)
  %32 = tail call i32 @dissect_h265(ptr noundef %31, ptr noundef %1, ptr noundef %2, ptr poison)
  %33 = add i32 %.0, %22
  %34 = tail call i32 @tvb_reported_length_remaining(ptr noundef %0, i32 noundef %33)
  %.not42 = icmp eq i32 %34, 0
  br i1 %.not42, label %._crit_edge, label %.lr.ph57, !llvm.loop !33

._crit_edge:                                      ; preds = %.loopexit, %15
  %35 = tail call i32 @tvb_reported_length(ptr noundef %0)
  br label %.loopexit47

.loopexit47:                                      ; preds = %11, %10, %4, %._crit_edge
  %.040 = phi i32 [ %35, %._crit_edge ], [ 0, %4 ], [ 0, %10 ], [ 0, %11 ]
  ret i32 %.040
}